; Function Attrs: mustprogress nounwind uwtable
define dso_local void @_ZN4llvm18AArch64InstPrinter15printSVEPatternEPKNS_6MCInstEjRKNS_15MCSubtargetInfoERNS_11raw_ostreamE(ptr noundef nonnull align 8 dereferenceable(58) %0, ptr nocapture noundef readonly %1, i32 noundef %2, ptr nocapture nonnull readnone align 8 %3, ptr noundef nonnull align 8 dereferenceable(48) %4) local_unnamed_addr #1 align 2 {
  %6 = alloca %"class.llvm::MCInstPrinter::WithMarkup", align 8
  %7 = alloca %"class.llvm::format_object", align 8
  %8 = getelementptr inbounds nuw i8, ptr %1, i64 16
  %9 = zext i32 %2 to i64
  %10 = load ptr, ptr %8, align 8
  %11 = getelementptr inbounds %"class.llvm::MCOperand", ptr %10, i64 %9, i32 1
  %12 = load i64, ptr %11, align 8
  %13 = trunc i64 %12 to i8
  %14 = tail call noundef ptr @_ZN4llvm21AArch64SVEPredPattern26lookupSVEPREDPATByEncodingEh(i8 noundef zeroext %13) #22
  %.not = icmp eq ptr %14, null
  br i1 %.not, label %32, label %15

15:                                               ; preds = %5
  %16 = load ptr, ptr %14, align 8
  %.not.i.i = icmp eq ptr %16, null
  br i1 %.not.i.i, label %_ZN4llvm11raw_ostreamlsEPKc.exit, label %_ZN4llvm9StringRefC2EPKc.exit.i

_ZN4llvm9StringRefC2EPKc.exit.i:                  ; preds = %15
  %17 = tail call noundef i64 @strlen(ptr noundef nonnull dereferenceable(1) %16) #22
  %18 = getelementptr inbounds nuw i8, ptr %4, i64 24
  %19 = load ptr, ptr %18, align 8
  %20 = getelementptr inbounds nuw i8, ptr %4, i64 32
  %21 = load ptr, ptr %20, align 8
  %22 = ptrtoint ptr %19 to i64
  %23 = ptrtoint ptr %21 to i64
  %24 = sub i64 %22, %23
  %25 = icmp ugt i64 %17, %24
  br i1 %25, label %26, label %28

26:                                               ; preds = %_ZN4llvm9StringRefC2EPKc.exit.i
  %27 = tail call noundef nonnull align 8 dereferenceable(48) ptr @_ZN4llvm11raw_ostream5writeEPKcm(ptr noundef nonnull align 8 dereferenceable(48) %4, ptr noundef nonnull %16, i64 noundef %17) #22
  br label %_ZN4llvm11raw_ostreamlsEPKc.exit

28:                                               ; preds = %_ZN4llvm9StringRefC2EPKc.exit.i
  %.not.i2.i = icmp eq i64 %17, 0
  br i1 %.not.i2.i, label %_ZN4llvm11raw_ostreamlsEPKc.exit, label %29

29:                                               ; preds = %28
  tail call void @llvm.memcpy.p0.p0.i64(ptr align 1 %21, ptr nonnull align 1 %16, i64 %17, i1 false)
  %30 = load ptr, ptr %20, align 8
  %31 = getelementptr inbounds i8, ptr %30, i64 %17
  store ptr %31, ptr %20, align 8
  br label %_ZN4llvm11raw_ostreamlsEPKc.exit

32:                                               ; preds = %5
  call void @_ZNK4llvm13MCInstPrinter6markupERNS_11raw_ostreamENS0_6MarkupE(ptr dead_on_unwind nonnull writable sret(%"class.llvm::MCInstPrinter::WithMarkup") align 8 %6, ptr noundef nonnull align 8 dereferenceable(58) %0, ptr noundef nonnull align 8 dereferenceable(48) %4, i32 noundef 0) #22
  %33 = load ptr, ptr %6, align 8
  %34 = getelementptr inbounds nuw i8, ptr %33, i64 32
  %35 = load ptr, ptr %34, align 8
  %36 = getelementptr inbounds nuw i8, ptr %33, i64 24
  %37 = load ptr, ptr %36, align 8
  %.not.i.i8 = icmp ult ptr %35, %37
  br i1 %.not.i.i8, label %40, label %38

38:                                               ; preds = %32
  %39 = call noundef nonnull align 8 dereferenceable(48) ptr @_ZN4llvm11raw_ostream5writeEh(ptr noundef nonnull align 8 dereferenceable(48) %33, i8 noundef zeroext 35) #22
  br label %_ZN4llvm13MCInstPrinter10WithMarkuplsIcEERS1_RKT_.exit

40:                                               ; preds = %32
  %41 = getelementptr inbounds i8, ptr %35, i64 1
  store ptr %41, ptr %34, align 8
  store i8 35, ptr %35, align 1
  br label %_ZN4llvm13MCInstPrinter10WithMarkuplsIcEERS1_RKT_.exit

_ZN4llvm13MCInstPrinter10WithMarkuplsIcEERS1_RKT_.exit: ; preds = %38, %40
  %42 = and i64 %12, 4294967295
  %43 = getelementptr inbounds nuw i8, ptr %0, i64 51
  %44 = load i8, ptr %43, align 1, !noalias !149
  %45 = trunc i8 %44 to i1
  br i1 %45, label %46, label %47

46:                                               ; preds = %_ZN4llvm13MCInstPrinter10WithMarkuplsIcEERS1_RKT_.exit
  call void @_ZNK4llvm13MCInstPrinter9formatHexEl(ptr dead_on_unwind nonnull writable sret(%"class.llvm::format_object") align 8 %7, ptr noundef nonnull align 8 dereferenceable(58) %0, i64 noundef %42) #22
  br label %_ZNK4llvm13MCInstPrinter9formatImmEl.exit

47:                                               ; preds = %_ZN4llvm13MCInstPrinter10WithMarkuplsIcEERS1_RKT_.exit
  call void @_ZNK4llvm13MCInstPrinter9formatDecEl(ptr dead_on_unwind nonnull writable sret(%"class.llvm::format_object") align 8 %7, ptr noundef nonnull align 8 dereferenceable(58) %0, i64 noundef %42) #22
  br label %_ZNK4llvm13MCInstPrinter9formatImmEl.exit

_ZNK4llvm13MCInstPrinter9formatImmEl.exit:        ; preds = %46, %47
  %48 = load ptr, ptr %6, align 8
  %49 = call noundef nonnull align 8 dereferenceable(48) ptr @_ZN4llvm11raw_ostreamlsERKNS_18format_object_baseE(ptr noundef nonnull align 8 dereferenceable(48) %48, ptr noundef nonnull align 8 dereferenceable(16) %7) #22
  call void @_ZN4llvm13MCInstPrinter10WithMarkupD1Ev(ptr noundef nonnull align 8 dereferenceable(10) %6) #22
  br label %_ZN4llvm11raw_ostreamlsEPKc.exit

_ZN4llvm11raw_ostreamlsEPKc.exit:                 ; preds = %29, %28, %26, %15, %_ZNK4llvm13MCInstPrinter9formatImmEl.exit
  ret void
}